target datalayout = "e-m:e-p270:32:32-p271:32:32-p272:64:64-i64:64-i128:128-f80:128-n8:16:32:64-S128"
target triple = "x86_64-pc-linux-gnu"

%struct.child_prov_globals = type { ptr, ptr, ptr, ptr, ptr, ptr, ptr, ptr, ptr, ptr, ptr }
%struct.ossl_dispatch_st = type { i32, ptr }

; Function Attrs: inlinehint nounwind uwtable
define internal ptr @OSSL_FUNC_provider_free(ptr noundef %0) #3 {
  %2 = alloca ptr, align 8
  store ptr %0, ptr %2, align 8, !tbaa !15
  %3 = load ptr, ptr %2, align 8, !tbaa !15
  %4 = getelementptr inbounds nuw %struct.ossl_dispatch_st, ptr %3, i32 0, i32 1
  %5 = load ptr, ptr %4, align 8, !tbaa !31
  ret ptr %5
}

; Function Attrs: inlinehint nounwind uwtable
define internal ptr @OSSL_FUNC_provider_up_ref(ptr noundef %0) #3 {
  %2 = alloca ptr, align 8
  store ptr %0, ptr %2, align 8, !tbaa !15
  %3 = load ptr, ptr %2, align 8, !tbaa !15
  %4 = getelementptr inbounds nuw %struct.ossl_dispatch_st, ptr %3, i32 0, i32 1
  %5 = load ptr, ptr %4, align 8, !tbaa !31
  ret ptr %5
}

; Function Attrs: inlinehint nounwind uwtable
define internal ptr @OSSL_FUNC_provider_get0_dispatch(ptr noundef %0) #3 {
  %2 = alloca ptr, align 8
  store ptr %0, ptr %2, align 8, !tbaa !15
  %3 = load ptr, ptr %2, align 8, !tbaa !15
  %4 = getelementptr inbounds nuw %struct.ossl_dispatch_st, ptr %3, i32 0, i32 1
  %5 = load ptr, ptr %4, align 8, !tbaa !31
  ret ptr %5
}

; Function Attrs: inlinehint nounwind uwtable
define internal ptr @OSSL_FUNC_provider_get0_provider_ctx(ptr noundef %0) #3 {
  %2 = alloca ptr, align 8
  store ptr %0, ptr %2, align 8, !tbaa !15
  %3 = load ptr, ptr %2, align 8, !tbaa !15
  %4 = getelementptr inbounds nuw %struct.ossl_dispatch_st, ptr %3, i32 0, i32 1
  %5 = load ptr, ptr %4, align 8, !tbaa !31
  ret ptr %5
}

; Function Attrs: inlinehint nounwind uwtable
define internal ptr @OSSL_FUNC_provider_name(ptr noundef %0) #3 {
  %2 = alloca ptr, align 8
  store ptr %0, ptr %2, align 8, !tbaa !15
  %3 = load ptr, ptr %2, align 8, !tbaa !15
  %4 = getelementptr inbounds nuw %struct.ossl_dispatch_st, ptr %3, i32 0, i32 1
  %5 = load ptr, ptr %4, align 8, !tbaa !31
  ret ptr %5
}

; Function Attrs: inlinehint nounwind uwtable
define internal ptr @OSSL_FUNC_provider_deregister_child_cb(ptr noundef %0) #3 {
  %2 = alloca ptr, align 8
  store ptr %0, ptr %2, align 8, !tbaa !15
  %3 = load ptr, ptr %2, align 8, !tbaa !15
  %4 = getelementptr inbounds nuw %struct.ossl_dispatch_st, ptr %3, i32 0, i32 1
  %5 = load ptr, ptr %4, align 8, !tbaa !31
  ret ptr %5
}

; Function Attrs: inlinehint nounwind uwtable
define internal ptr @OSSL_FUNC_provider_register_child_cb(ptr noundef %0) #3 {
  %2 = alloca ptr, align 8
  store ptr %0, ptr %2, align 8, !tbaa !15
  %3 = load ptr, ptr %2, align 8, !tbaa !15
  %4 = getelementptr inbounds nuw %struct.ossl_dispatch_st, ptr %3, i32 0, i32 1
  %5 = load ptr, ptr %4, align 8, !tbaa !31
  ret ptr %5
}

; Function Attrs: inlinehint nounwind uwtable
define internal ptr @OSSL_FUNC_core_get_libctx(ptr noundef %0) #3 {
  %2 = alloca ptr, align 8
  store ptr %0, ptr %2, align 8, !tbaa !15
  %3 = load ptr, ptr %2, align 8, !tbaa !15
  %4 = getelementptr inbounds nuw %struct.ossl_dispatch_st, ptr %3, i32 0, i32 1
  %5 = load ptr, ptr %4, align 8, !tbaa !31
  ret ptr %5
}

; Function Attrs: nounwind uwtable
define i32 @ossl_provider_init_as_child(ptr noundef %0, ptr noundef %1, ptr noundef %2) #0 {
  %4 = alloca i32, align 4
  %5 = alloca ptr, align 8
  %6 = alloca ptr, align 8
  %7 = alloca ptr, align 8
  %8 = alloca ptr, align 8
  %9 = alloca i32, align 4
  store ptr %0, ptr %5, align 8, !tbaa !3
  store ptr %1, ptr %6, align 8, !tbaa !14
  store ptr %2, ptr %7, align 8, !tbaa !15
  call void @llvm.lifetime.start.p0(i64 8, ptr %8) #4
  %10 = load ptr, ptr %5, align 8, !tbaa !3
  %11 = icmp eq ptr %10, null
  br i1 %11, label %12, label %13

12:                                               ; preds = %3
  store i32 0, ptr %4, align 4
  store i32 1, ptr %9, align 4
  br label %134

13:                                               ; preds = %3
  %14 = load ptr, ptr %5, align 8, !tbaa !3
  %15 = call ptr @ossl_lib_ctx_get_data(ptr noundef %14, i32 noundef 18)
  store ptr %15, ptr %8, align 8, !tbaa !9
  %16 = load ptr, ptr %8, align 8, !tbaa !9
  %17 = icmp eq ptr %16, null
  br i1 %17, label %18, label %19

18:                                               ; preds = %13
  store i32 0, ptr %4, align 4
  store i32 1, ptr %9, align 4
  br label %134

19:                                               ; preds = %13
  %20 = load ptr, ptr %6, align 8, !tbaa !14
  %21 = load ptr, ptr %8, align 8, !tbaa !9
  %22 = getelementptr inbounds nuw %struct.child_prov_globals, ptr %21, i32 0, i32 0
  store ptr %20, ptr %22, align 8, !tbaa !17
  br label %23

23:                                               ; preds = %74, %19
  %24 = load ptr, ptr %7, align 8, !tbaa !15
  %25 = getelementptr inbounds nuw %struct.ossl_dispatch_st, ptr %24, i32 0, i32 0
  %26 = load i32, ptr %25, align 8, !tbaa !18
  %27 = icmp ne i32 %26, 0
  br i1 %27, label %28, label %77

28:                                               ; preds = %23
  %29 = load ptr, ptr %7, align 8, !tbaa !15
  %30 = getelementptr inbounds nuw %struct.ossl_dispatch_st, ptr %29, i32 0, i32 0
  %31 = load i32, ptr %30, align 8, !tbaa !18
  switch i32 %31, label %72 [
    i32 4, label %32
    i32 105, label %37
    i32 106, label %42
    i32 107, label %47
    i32 108, label %52
    i32 109, label %57
    i32 110, label %62
    i32 111, label %67
  ]

32:                                               ; preds = %28
  %33 = load ptr, ptr %7, align 8, !tbaa !15
  %34 = call ptr @OSSL_FUNC_core_get_libctx(ptr noundef %33)
  %35 = load ptr, ptr %8, align 8, !tbaa !9
  %36 = getelementptr inbounds nuw %struct.child_prov_globals, ptr %35, i32 0, i32 3
  store ptr %34, ptr %36, align 8, !tbaa !21
  br label %73

37:                                               ; preds = %28
  %38 = load ptr, ptr %7, align 8, !tbaa !15
  %39 = call ptr @OSSL_FUNC_provider_register_child_cb(ptr noundef %38)
  %40 = load ptr, ptr %8, align 8, !tbaa !9
  %41 = getelementptr inbounds nuw %struct.child_prov_globals, ptr %40, i32 0, i32 4
  store ptr %39, ptr %41, align 8, !tbaa !22
  br label %73

42:                                               ; preds = %28
  %43 = load ptr, ptr %7, align 8, !tbaa !15
  %44 = call ptr @OSSL_FUNC_provider_deregister_child_cb(ptr noundef %43)
  %45 = load ptr, ptr %8, align 8, !tbaa !9
  %46 = getelementptr inbounds nuw %struct.child_prov_globals, ptr %45, i32 0, i32 5
  store ptr %44, ptr %46, align 8, !tbaa !23
  br label %73

47:                                               ; preds = %28
  %48 = load ptr, ptr %7, align 8, !tbaa !15
  %49 = call ptr @OSSL_FUNC_provider_name(ptr noundef %48)
  %50 = load ptr, ptr %8, align 8, !tbaa !9
  %51 = getelementptr inbounds nuw %struct.child_prov_globals, ptr %50, i32 0, i32 6
  store ptr %49, ptr %51, align 8, !tbaa !24
  br label %73

52:                                               ; preds = %28
  %53 = load ptr, ptr %7, align 8, !tbaa !15
  %54 = call ptr @OSSL_FUNC_provider_get0_provider_ctx(ptr noundef %53)
  %55 = load ptr, ptr %8, align 8, !tbaa !9
  %56 = getelementptr inbounds nuw %struct.child_prov_globals, ptr %55, i32 0, i32 7
  store ptr %54, ptr %56, align 8, !tbaa !25
  br label %73

57:                                               ; preds = %28
  %58 = load ptr, ptr %7, align 8, !tbaa !15
  %59 = call ptr @OSSL_FUNC_provider_get0_dispatch(ptr noundef %58)
  %60 = load ptr, ptr %8, align 8, !tbaa !9
  %61 = getelementptr inbounds nuw %struct.child_prov_globals, ptr %60, i32 0, i32 8
  store ptr %59, ptr %61, align 8, !tbaa !26
  br label %73

62:                                               ; preds = %28
  %63 = load ptr, ptr %7, align 8, !tbaa !15
  %64 = call ptr @OSSL_FUNC_provider_up_ref(ptr noundef %63)
  %65 = load ptr, ptr %8, align 8, !tbaa !9
  %66 = getelementptr inbounds nuw %struct.child_prov_globals, ptr %65, i32 0, i32 9
  store ptr %64, ptr %66, align 8, !tbaa !27
  br label %73

67:                                               ; preds = %28
  %68 = load ptr, ptr %7, align 8, !tbaa !15
  %69 = call ptr @OSSL_FUNC_provider_free(ptr noundef %68)
  %70 = load ptr, ptr %8, align 8, !tbaa !9
  %71 = getelementptr inbounds nuw %struct.child_prov_globals, ptr %70, i32 0, i32 10
  store ptr %69, ptr %71, align 8, !tbaa !28
  br label %73

72:                                               ; preds = %28
  br label %73

73:                                               ; preds = %72, %67, %62, %57, %52, %47, %42, %37, %32
  br label %74

74:                                               ; preds = %73
  %75 = load ptr, ptr %7, align 8, !tbaa !15
  %76 = getelementptr inbounds nuw %struct.ossl_dispatch_st, ptr %75, i32 1
  store ptr %76, ptr %7, align 8, !tbaa !15
  br label %23, !llvm.loop !29

77:                                               ; preds = %23
  %78 = load ptr, ptr %8, align 8, !tbaa !9
  %79 = getelementptr inbounds nuw %struct.child_prov_globals, ptr %78, i32 0, i32 3
  %80 = load ptr, ptr %79, align 8, !tbaa !21
  %81 = icmp eq ptr %80, null
  br i1 %81, label %112, label %82

82:                                               ; preds = %77
  %83 = load ptr, ptr %8, align 8, !tbaa !9
  %84 = getelementptr inbounds nuw %struct.child_prov_globals, ptr %83, i32 0, i32 4
  %85 = load ptr, ptr %84, align 8, !tbaa !22
  %86 = icmp eq ptr %85, null
  br i1 %86, label %112, label %87

87:                                               ; preds = %82
  %88 = load ptr, ptr %8, align 8, !tbaa !9
  %89 = getelementptr inbounds nuw %struct.child_prov_globals, ptr %88, i32 0, i32 6
  %90 = load ptr, ptr %89, align 8, !tbaa !24
  %91 = icmp eq ptr %90, null
  br i1 %91, label %112, label %92

92:                                               ; preds = %87
  %93 = load ptr, ptr %8, align 8, !tbaa !9
  %94 = getelementptr inbounds nuw %struct.child_prov_globals, ptr %93, i32 0, i32 7
  %95 = load ptr, ptr %94, align 8, !tbaa !25
  %96 = icmp eq ptr %95, null
  br i1 %96, label %112, label %97

97:                                               ; preds = %92
  %98 = load ptr, ptr %8, align 8, !tbaa !9
  %99 = getelementptr inbounds nuw %struct.child_prov_globals, ptr %98, i32 0, i32 8
  %100 = load ptr, ptr %99, align 8, !tbaa !26
  %101 = icmp eq ptr %100, null
  br i1 %101, label %112, label %102

102:                                              ; preds = %97
  %103 = load ptr, ptr %8, align 8, !tbaa !9
  %104 = getelementptr inbounds nuw %struct.child_prov_globals, ptr %103, i32 0, i32 9
  %105 = load ptr, ptr %104, align 8, !tbaa !27
  %106 = icmp eq ptr %105, null
  br i1 %106, label %112, label %107

107:                                              ; preds = %102
  %108 = load ptr, ptr %8, align 8, !tbaa !9
  %109 = getelementptr inbounds nuw %struct.child_prov_globals, ptr %108, i32 0, i32 10
  %110 = load ptr, ptr %109, align 8, !tbaa !28
  %111 = icmp eq ptr %110, null
  br i1 %111, label %112, label %113

112:                                              ; preds = %107, %102, %97, %92, %87, %82, %77
  store i32 0, ptr %4, align 4
  store i32 1, ptr %9, align 4
  br label %134

113:                                              ; preds = %107
  %114 = call ptr @CRYPTO_THREAD_lock_new()
  %115 = load ptr, ptr %8, align 8, !tbaa !9
  %116 = getelementptr inbounds nuw %struct.child_prov_globals, ptr %115, i32 0, i32 2
  store ptr %114, ptr %116, align 8, !tbaa !11
  %117 = load ptr, ptr %8, align 8, !tbaa !9
  %118 = getelementptr inbounds nuw %struct.child_prov_globals, ptr %117, i32 0, i32 2
  %119 = load ptr, ptr %118, align 8, !tbaa !11
  %120 = icmp eq ptr %119, null
  br i1 %120, label %121, label %122

121:                                              ; preds = %113
  store i32 0, ptr %4, align 4
  store i32 1, ptr %9, align 4
  br label %134

122:                                              ; preds = %113
  %123 = load ptr, ptr %8, align 8, !tbaa !9
  %124 = getelementptr inbounds nuw %struct.child_prov_globals, ptr %123, i32 0, i32 4
  %125 = load ptr, ptr %124, align 8, !tbaa !22
  %126 = load ptr, ptr %8, align 8, !tbaa !9
  %127 = getelementptr inbounds nuw %struct.child_prov_globals, ptr %126, i32 0, i32 0
  %128 = load ptr, ptr %127, align 8, !tbaa !17
  %129 = load ptr, ptr %5, align 8, !tbaa !3
  %130 = call i32 %125(ptr noundef %128, ptr noundef @provider_create_child_cb, ptr noundef @provider_remove_child_cb, ptr noundef @provider_global_props_cb, ptr noundef %129)
  %131 = icmp ne i32 %130, 0
  br i1 %131, label %133, label %132

132:                                              ; preds = %122
  store i32 0, ptr %4, align 4
  store i32 1, ptr %9, align 4
  br label %134

133:                                              ; preds = %122
  store i32 1, ptr %4, align 4
  store i32 1, ptr %9, align 4
  br label %134

134:                                              ; preds = %133, %132, %121, %112, %18, %12
  call void @llvm.lifetime.end.p0(i64 8, ptr %8) #4
  %135 = load i32, ptr %4, align 4
  ret i32 %135
}