; Function Attrs: nounwind uwtable
define range(i32 0, 2) i32 @ossl_provider_init_as_child(ptr noundef %0, ptr noundef %1, ptr noundef readonly captures(none) %2) local_unnamed_addr #0 {
  %4 = icmp eq ptr %0, null
  br i1 %4, label %66, label %5

5:                                                ; preds = %3
  %6 = tail call ptr @ossl_lib_ctx_get_data(ptr noundef nonnull %0, i32 noundef 18) #2
  %7 = icmp eq ptr %6, null
  br i1 %7, label %66, label %8

8:                                                ; preds = %5
  store ptr %1, ptr %6, align 8, !tbaa !9
  %9 = getelementptr inbounds nuw i8, ptr %6, i64 80
  %10 = getelementptr inbounds nuw i8, ptr %6, i64 72
  %11 = getelementptr inbounds nuw i8, ptr %6, i64 64
  %12 = getelementptr inbounds nuw i8, ptr %6, i64 56
  %13 = getelementptr inbounds nuw i8, ptr %6, i64 48
  %14 = getelementptr inbounds nuw i8, ptr %6, i64 40
  %15 = getelementptr inbounds nuw i8, ptr %6, i64 32
  %16 = getelementptr inbounds nuw i8, ptr %6, i64 24
  br label %17

17:                                               ; preds = %35, %8
  %.036 = phi ptr [ %2, %8 ], [ %36, %35 ]
  %18 = load i32, ptr %.036, align 8, !tbaa !10
  switch i32 %18, label %35 [
    i32 0, label %37
    i32 4, label %19
    i32 105, label %21
    i32 106, label %23
    i32 107, label %25
    i32 108, label %27
    i32 109, label %29
    i32 110, label %31
    i32 111, label %33
  ]

19:                                               ; preds = %17
  %20 = getelementptr i8, ptr %.036, i64 8
  %.036.val = load ptr, ptr %20, align 8, !tbaa !13
  store ptr %.036.val, ptr %16, align 8, !tbaa !14
  br label %35

21:                                               ; preds = %17
  %22 = getelementptr i8, ptr %.036, i64 8
  %.036.val41 = load ptr, ptr %22, align 8, !tbaa !13
  store ptr %.036.val41, ptr %15, align 8, !tbaa !15
  br label %35

23:                                               ; preds = %17
  %24 = getelementptr i8, ptr %.036, i64 8
  %.036.val42 = load ptr, ptr %24, align 8, !tbaa !13
  store ptr %.036.val42, ptr %14, align 8, !tbaa !16
  br label %35

25:                                               ; preds = %17
  %26 = getelementptr i8, ptr %.036, i64 8
  %.036.val43 = load ptr, ptr %26, align 8, !tbaa !13
  store ptr %.036.val43, ptr %13, align 8, !tbaa !17
  br label %35

27:                                               ; preds = %17
  %28 = getelementptr i8, ptr %.036, i64 8
  %.036.val44 = load ptr, ptr %28, align 8, !tbaa !13
  store ptr %.036.val44, ptr %12, align 8, !tbaa !18
  br label %35

29:                                               ; preds = %17
  %30 = getelementptr i8, ptr %.036, i64 8
  %.036.val45 = load ptr, ptr %30, align 8, !tbaa !13
  store ptr %.036.val45, ptr %11, align 8, !tbaa !19
  br label %35

31:                                               ; preds = %17
  %32 = getelementptr i8, ptr %.036, i64 8
  %.036.val46 = load ptr, ptr %32, align 8, !tbaa !13
  store ptr %.036.val46, ptr %10, align 8, !tbaa !20
  br label %35

33:                                               ; preds = %17
  %34 = getelementptr i8, ptr %.036, i64 8
  %.036.val47 = load ptr, ptr %34, align 8, !tbaa !13
  store ptr %.036.val47, ptr %9, align 8, !tbaa !21
  br label %35

35:                                               ; preds = %17, %19, %21, %23, %25, %27, %29, %31, %33
  %36 = getelementptr inbounds nuw i8, ptr %.036, i64 16
  br label %17, !llvm.loop !22

37:                                               ; preds = %17
  %38 = load ptr, ptr %16, align 8, !tbaa !14
  %39 = icmp eq ptr %38, null
  br i1 %39, label %66, label %40

40:                                               ; preds = %37
  %41 = load ptr, ptr %15, align 8, !tbaa !15
  %42 = icmp eq ptr %41, null
  br i1 %42, label %66, label %43

43:                                               ; preds = %40
  %44 = load ptr, ptr %13, align 8, !tbaa !17
  %45 = icmp eq ptr %44, null
  br i1 %45, label %66, label %46

46:                                               ; preds = %43
  %47 = load ptr, ptr %12, align 8, !tbaa !18
  %48 = icmp eq ptr %47, null
  br i1 %48, label %66, label %49

49:                                               ; preds = %46
  %50 = load ptr, ptr %11, align 8, !tbaa !19
  %51 = icmp eq ptr %50, null
  br i1 %51, label %66, label %52

52:                                               ; preds = %49
  %53 = load ptr, ptr %10, align 8, !tbaa !20
  %54 = icmp eq ptr %53, null
  br i1 %54, label %66, label %55

55:                                               ; preds = %52
  %56 = load ptr, ptr %9, align 8, !tbaa !21
  %57 = icmp eq ptr %56, null
  br i1 %57, label %66, label %58

58:                                               ; preds = %55
  %59 = tail call ptr @CRYPTO_THREAD_lock_new() #2
  %60 = getelementptr inbounds nuw i8, ptr %6, i64 16
  store ptr %59, ptr %60, align 8, !tbaa !3
  %61 = icmp eq ptr %59, null
  br i1 %61, label %66, label %62

62:                                               ; preds = %58
  %63 = load ptr, ptr %15, align 8, !tbaa !15
  %64 = load ptr, ptr %6, align 8, !tbaa !9
  %65 = tail call i32 %63(ptr noundef %64, ptr noundef nonnull @provider_create_child_cb, ptr noundef nonnull @provider_remove_child_cb, ptr noundef nonnull @provider_global_props_cb, ptr noundef nonnull %0) #2
  %.not40 = icmp ne i32 %65, 0
  %. = zext i1 %.not40 to i32
  br label %66

66:                                               ; preds = %62, %58, %37, %40, %43, %46, %49, %52, %55, %5, %3
  %.0 = phi i32 [ 0, %3 ], [ 0, %5 ], [ 0, %55 ], [ 0, %52 ], [ 0, %49 ], [ 0, %46 ], [ 0, %43 ], [ 0, %40 ], [ 0, %37 ], [ 0, %58 ], [ %., %62 ]
  ret i32 %.0
}